target datalayout = "e-m:e-p270:32:32-p271:32:32-p272:64:64-i64:64-i128:128-f80:128-n8:16:32:64-S128"
target triple = "x86_64-pc-linux-gnu"

%"class.draco::GeometryAttribute" = type { ptr, %"struct.draco::DataBufferDescriptor", i8, i32, i8, i64, i64, i32, i32 }
%"struct.draco::DataBufferDescriptor" = type { i64, i64 }

; Function Attrs: mustprogress nounwind uwtable
define linkonce_odr void @_ZN5draco20DataBufferDescriptorC2Ev(ptr noundef nonnull align 8 dereferenceable(16) %0) unnamed_addr #1 comdat align 2 {
  %2 = alloca ptr, align 8
  store ptr %0, ptr %2, align 8, !tbaa !23
  %3 = load ptr, ptr %2, align 8
  %4 = getelementptr inbounds nuw %"struct.draco::DataBufferDescriptor", ptr %3, i32 0, i32 0
  store i64 0, ptr %4, align 8, !tbaa !25
  %5 = getelementptr inbounds nuw %"struct.draco::DataBufferDescriptor", ptr %3, i32 0, i32 1
  store i64 0, ptr %5, align 8, !tbaa !26
  ret void
}

; Function Attrs: mustprogress uwtable
define void @_ZN5draco17GeometryAttributeC2Ev(ptr noundef nonnull align 8 dereferenceable(64) %0) unnamed_addr #0 align 2 {
  %2 = alloca ptr, align 8
  store ptr %0, ptr %2, align 8, !tbaa !3
  %3 = load ptr, ptr %2, align 8
  %4 = getelementptr inbounds nuw %"class.draco::GeometryAttribute", ptr %3, i32 0, i32 0
  store ptr null, ptr %4, align 8, !tbaa !8
  %5 = getelementptr inbounds nuw %"class.draco::GeometryAttribute", ptr %3, i32 0, i32 1
  call void @_ZN5draco20DataBufferDescriptorC2Ev(ptr noundef nonnull align 8 dereferenceable(16) %5)
  %6 = getelementptr inbounds nuw %"class.draco::GeometryAttribute", ptr %3, i32 0, i32 2
  store i8 1, ptr %6, align 8, !tbaa !17
  %7 = getelementptr inbounds nuw %"class.draco::GeometryAttribute", ptr %3, i32 0, i32 3
  store i32 9, ptr %7, align 4, !tbaa !18
  %8 = getelementptr inbounds nuw %"class.draco::GeometryAttribute", ptr %3, i32 0, i32 5
  store i64 0, ptr %8, align 8, !tbaa !19
  %9 = getelementptr inbounds nuw %"class.draco::GeometryAttribute", ptr %3, i32 0, i32 6
  store i64 0, ptr %9, align 8, !tbaa !20
  %10 = getelementptr inbounds nuw %"class.draco::GeometryAttribute", ptr %3, i32 0, i32 7
  store i32 -1, ptr %10, align 8, !tbaa !21
  %11 = getelementptr inbounds nuw %"class.draco::GeometryAttribute", ptr %3, i32 0, i32 8
  store i32 0, ptr %11, align 4, !tbaa !22
  ret void
}